target datalayout = "e-m:e-p270:32:32-p271:32:32-p272:64:64-i64:64-i128:128-f80:128-n8:16:32:64-S128"
target triple = "x86_64-pc-linux-gnu"

%struct.AVFloatDSPContext = type { ptr, ptr, ptr, ptr, ptr, ptr, ptr, ptr, ptr, ptr, ptr, ptr }

@.str = private unnamed_addr constant [30 x i8] c"Assertion %s failed at %s:%d\0A\00", align 1
@.str.1 = private unnamed_addr constant [101 x i8] c"((ch_mask & (DCA_SPEAKER_MASK_L | DCA_SPEAKER_MASK_R)) == (DCA_SPEAKER_MASK_L | DCA_SPEAKER_MASK_R))\00", align 1
@.str.2 = private unnamed_addr constant [20 x i8] c"libavcodec/dcadec.c\00", align 1
@ff_log2_tab = external constant [256 x i8], align 16

; Function Attrs: alwaysinline nounwind willreturn memory(none) uwtable
define internal i32 @av_popcount_c(i32 noundef %0) #3 {
  %2 = alloca i32, align 4
  store i32 %0, ptr %2, align 4, !tbaa !11
  %3 = load i32, ptr %2, align 4, !tbaa !11
  %4 = lshr i32 %3, 1
  %5 = and i32 %4, 1431655765
  %6 = load i32, ptr %2, align 4, !tbaa !11
  %7 = sub i32 %6, %5
  store i32 %7, ptr %2, align 4, !tbaa !11
  %8 = load i32, ptr %2, align 4, !tbaa !11
  %9 = and i32 %8, 858993459
  %10 = load i32, ptr %2, align 4, !tbaa !11
  %11 = lshr i32 %10, 2
  %12 = and i32 %11, 858993459
  %13 = add i32 %9, %12
  store i32 %13, ptr %2, align 4, !tbaa !11
  %14 = load i32, ptr %2, align 4, !tbaa !11
  %15 = load i32, ptr %2, align 4, !tbaa !11
  %16 = lshr i32 %15, 4
  %17 = add i32 %14, %16
  %18 = and i32 %17, 252645135
  store i32 %18, ptr %2, align 4, !tbaa !11
  %19 = load i32, ptr %2, align 4, !tbaa !11
  %20 = lshr i32 %19, 8
  %21 = load i32, ptr %2, align 4, !tbaa !11
  %22 = add i32 %21, %20
  store i32 %22, ptr %2, align 4, !tbaa !11
  %23 = load i32, ptr %2, align 4, !tbaa !11
  %24 = load i32, ptr %2, align 4, !tbaa !11
  %25 = lshr i32 %24, 16
  %26 = add i32 %23, %25
  %27 = and i32 %26, 63
  ret i32 %27
}

; Function Attrs: alwaysinline nounwind willreturn memory(none) uwtable
define internal i32 @ff_log2_c(i32 noundef %0) #3 {
  %2 = alloca i32, align 4
  %3 = alloca i32, align 4
  store i32 %0, ptr %2, align 4, !tbaa !11
  call void @llvm.lifetime.start.p0(i64 4, ptr %3) #8
  store i32 0, ptr %3, align 4, !tbaa !11
  %4 = load i32, ptr %2, align 4, !tbaa !11
  %5 = and i32 %4, -65536
  %6 = icmp ne i32 %5, 0
  br i1 %6, label %7, label %12

7:                                                ; preds = %1
  %8 = load i32, ptr %2, align 4, !tbaa !11
  %9 = lshr i32 %8, 16
  store i32 %9, ptr %2, align 4, !tbaa !11
  %10 = load i32, ptr %3, align 4, !tbaa !11
  %11 = add nsw i32 %10, 16
  store i32 %11, ptr %3, align 4, !tbaa !11
  br label %12

12:                                               ; preds = %7, %1
  %13 = load i32, ptr %2, align 4, !tbaa !11
  %14 = and i32 %13, 65280
  %15 = icmp ne i32 %14, 0
  br i1 %15, label %16, label %21

16:                                               ; preds = %12
  %17 = load i32, ptr %2, align 4, !tbaa !11
  %18 = lshr i32 %17, 8
  store i32 %18, ptr %2, align 4, !tbaa !11
  %19 = load i32, ptr %3, align 4, !tbaa !11
  %20 = add nsw i32 %19, 8
  store i32 %20, ptr %3, align 4, !tbaa !11
  br label %21

21:                                               ; preds = %16, %12
  %22 = load i32, ptr %2, align 4, !tbaa !11
  %23 = zext i32 %22 to i64
  %24 = getelementptr inbounds nuw [256 x i8], ptr @ff_log2_tab, i64 0, i64 %23
  %25 = load i8, ptr %24, align 1, !tbaa !53
  %26 = zext i8 %25 to i32
  %27 = load i32, ptr %3, align 4, !tbaa !11
  %28 = add nsw i32 %27, %26
  store i32 %28, ptr %3, align 4, !tbaa !11
  %29 = load i32, ptr %3, align 4, !tbaa !11
  call void @llvm.lifetime.end.p0(i64 4, ptr %3) #8
  ret i32 %29
}

; Function Attrs: nounwind uwtable
define void @ff_dca_downmix_to_stereo_float(ptr noundef %0, ptr noundef %1, ptr noundef %2, i32 noundef %3, i32 noundef %4) #0 {
  %6 = alloca ptr, align 8
  %7 = alloca ptr, align 8
  %8 = alloca ptr, align 8
  %9 = alloca i32, align 4
  %10 = alloca i32, align 4
  %11 = alloca i32, align 4
  %12 = alloca i32, align 4
  %13 = alloca i32, align 4
  %14 = alloca ptr, align 8
  %15 = alloca float, align 4
  store ptr %0, ptr %6, align 8, !tbaa !62
  store ptr %1, ptr %7, align 8, !tbaa !63
  store ptr %2, ptr %8, align 8, !tbaa !9
  store i32 %3, ptr %9, align 4, !tbaa !11
  store i32 %4, ptr %10, align 4, !tbaa !11
  call void @llvm.lifetime.start.p0(i64 4, ptr %11) #8
  call void @llvm.lifetime.start.p0(i64 4, ptr %12) #8
  call void @llvm.lifetime.start.p0(i64 4, ptr %13) #8
  %16 = load i32, ptr %10, align 4, !tbaa !11
  %17 = call i32 @ff_log2_c(i32 noundef %16) #9
  store i32 %17, ptr %13, align 4, !tbaa !11
  call void @llvm.lifetime.start.p0(i64 8, ptr %14) #8
  %18 = load ptr, ptr %8, align 8, !tbaa !9
  %19 = load i32, ptr %10, align 4, !tbaa !11
  %20 = call i32 @av_popcount_c(i32 noundef %19) #9
  %21 = sext i32 %20 to i64
  %22 = getelementptr inbounds i32, ptr %18, i64 %21
  store ptr %22, ptr %14, align 8, !tbaa !9
  call void @llvm.lifetime.start.p0(i64 4, ptr %15) #8
  store float 0x3F00000000000000, ptr %15, align 4, !tbaa !65
  br label %23

23:                                               ; preds = %5
  %24 = load i32, ptr %10, align 4, !tbaa !11
  %25 = and i32 %24, 6
  %26 = icmp eq i32 %25, 6
  br i1 %26, label %28, label %27

27:                                               ; preds = %23
  call void (ptr, i32, ptr, ...) @av_log(ptr noundef null, i32 noundef 0, ptr noundef @.str, ptr noundef @.str.1, ptr noundef @.str.2, i32 noundef 124)
  call void @abort() #10
  unreachable

28:                                               ; preds = %23
  br label %29

29:                                               ; preds = %28
  br label %30

30:                                               ; preds = %29
  %31 = load i32, ptr %10, align 4, !tbaa !11
  %32 = and i32 %31, 1
  store i32 %32, ptr %11, align 4, !tbaa !11
  %33 = load ptr, ptr %6, align 8, !tbaa !62
  %34 = getelementptr inbounds nuw %struct.AVFloatDSPContext, ptr %33, i32 0, i32 3
  %35 = load ptr, ptr %34, align 8, !tbaa !66
  %36 = load ptr, ptr %7, align 8, !tbaa !63
  %37 = getelementptr inbounds ptr, ptr %36, i64 1
  %38 = load ptr, ptr %37, align 8, !tbaa !68
  %39 = load ptr, ptr %7, align 8, !tbaa !63
  %40 = getelementptr inbounds ptr, ptr %39, i64 1
  %41 = load ptr, ptr %40, align 8, !tbaa !68
  %42 = load ptr, ptr %8, align 8, !tbaa !9
  %43 = load i32, ptr %11, align 4, !tbaa !11
  %44 = sext i32 %43 to i64
  %45 = getelementptr inbounds i32, ptr %42, i64 %44
  %46 = load i32, ptr %45, align 4, !tbaa !11
  %47 = sitofp i32 %46 to float
  %48 = fmul nsz float %47, 0x3F00000000000000
  %49 = load i32, ptr %9, align 4, !tbaa !11
  call void %35(ptr noundef %38, ptr noundef %41, float noundef %48, i32 noundef %49)
  %50 = load ptr, ptr %6, align 8, !tbaa !62
  %51 = getelementptr inbounds nuw %struct.AVFloatDSPContext, ptr %50, i32 0, i32 3
  %52 = load ptr, ptr %51, align 8, !tbaa !66
  %53 = load ptr, ptr %7, align 8, !tbaa !63
  %54 = getelementptr inbounds ptr, ptr %53, i64 2
  %55 = load ptr, ptr %54, align 8, !tbaa !68
  %56 = load ptr, ptr %7, align 8, !tbaa !63
  %57 = getelementptr inbounds ptr, ptr %56, i64 2
  %58 = load ptr, ptr %57, align 8, !tbaa !68
  %59 = load ptr, ptr %14, align 8, !tbaa !9
  %60 = load i32, ptr %11, align 4, !tbaa !11
  %61 = add nsw i32 %60, 1
  %62 = sext i32 %61 to i64
  %63 = getelementptr inbounds i32, ptr %59, i64 %62
  %64 = load i32, ptr %63, align 4, !tbaa !11
  %65 = sitofp i32 %64 to float
  %66 = fmul nsz float %65, 0x3F00000000000000
  %67 = load i32, ptr %9, align 4, !tbaa !11
  call void %52(ptr noundef %55, ptr noundef %58, float noundef %66, i32 noundef %67)
  store i32 0, ptr %12, align 4, !tbaa !11
  br label %68

68:                                               ; preds = %132, %30
  %69 = load i32, ptr %12, align 4, !tbaa !11
  %70 = load i32, ptr %13, align 4, !tbaa !11
  %71 = icmp sle i32 %69, %70
  br i1 %71, label %72, label %135

72:                                               ; preds = %68
  %73 = load i32, ptr %10, align 4, !tbaa !11
  %74 = load i32, ptr %12, align 4, !tbaa !11
  %75 = shl i32 1, %74
  %76 = and i32 %73, %75
  %77 = icmp ne i32 %76, 0
  br i1 %77, label %79, label %78

78:                                               ; preds = %72
  br label %132

79:                                               ; preds = %72
  %80 = load ptr, ptr %8, align 8, !tbaa !9
  %81 = load i32, ptr %80, align 4, !tbaa !11
  %82 = icmp ne i32 %81, 0
  br i1 %82, label %83, label %103

83:                                               ; preds = %79
  %84 = load i32, ptr %12, align 4, !tbaa !11
  %85 = icmp ne i32 %84, 1
  br i1 %85, label %86, label %103

86:                                               ; preds = %83
  %87 = load ptr, ptr %6, align 8, !tbaa !62
  %88 = getelementptr inbounds nuw %struct.AVFloatDSPContext, ptr %87, i32 0, i32 1
  %89 = load ptr, ptr %88, align 8, !tbaa !69
  %90 = load ptr, ptr %7, align 8, !tbaa !63
  %91 = getelementptr inbounds ptr, ptr %90, i64 1
  %92 = load ptr, ptr %91, align 8, !tbaa !68
  %93 = load ptr, ptr %7, align 8, !tbaa !63
  %94 = load i32, ptr %12, align 4, !tbaa !11
  %95 = sext i32 %94 to i64
  %96 = getelementptr inbounds ptr, ptr %93, i64 %95
  %97 = load ptr, ptr %96, align 8, !tbaa !68
  %98 = load ptr, ptr %8, align 8, !tbaa !9
  %99 = load i32, ptr %98, align 4, !tbaa !11
  %100 = sitofp i32 %99 to float
  %101 = fmul nsz float %100, 0x3F00000000000000
  %102 = load i32, ptr %9, align 4, !tbaa !11
  call void %89(ptr noundef %92, ptr noundef %97, float noundef %101, i32 noundef %102)
  br label %103

103:                                              ; preds = %86, %83, %79
  %104 = load ptr, ptr %14, align 8, !tbaa !9
  %105 = load i32, ptr %104, align 4, !tbaa !11
  %106 = icmp ne i32 %105, 0
  br i1 %106, label %107, label %127

107:                                              ; preds = %103
  %108 = load i32, ptr %12, align 4, !tbaa !11
  %109 = icmp ne i32 %108, 2
  br i1 %109, label %110, label %127

110:                                              ; preds = %107
  %111 = load ptr, ptr %6, align 8, !tbaa !62
  %112 = getelementptr inbounds nuw %struct.AVFloatDSPContext, ptr %111, i32 0, i32 1
  %113 = load ptr, ptr %112, align 8, !tbaa !69
  %114 = load ptr, ptr %7, align 8, !tbaa !63
  %115 = getelementptr inbounds ptr, ptr %114, i64 2
  %116 = load ptr, ptr %115, align 8, !tbaa !68
  %117 = load ptr, ptr %7, align 8, !tbaa !63
  %118 = load i32, ptr %12, align 4, !tbaa !11
  %119 = sext i32 %118 to i64
  %120 = getelementptr inbounds ptr, ptr %117, i64 %119
  %121 = load ptr, ptr %120, align 8, !tbaa !68
  %122 = load ptr, ptr %14, align 8, !tbaa !9
  %123 = load i32, ptr %122, align 4, !tbaa !11
  %124 = sitofp i32 %123 to float
  %125 = fmul nsz float %124, 0x3F00000000000000
  %126 = load i32, ptr %9, align 4, !tbaa !11
  call void %113(ptr noundef %116, ptr noundef %121, float noundef %125, i32 noundef %126)
  br label %127

127:                                              ; preds = %110, %107, %103
  %128 = load ptr, ptr %8, align 8, !tbaa !9
  %129 = getelementptr inbounds nuw i32, ptr %128, i32 1
  store ptr %129, ptr %8, align 8, !tbaa !9
  %130 = load ptr, ptr %14, align 8, !tbaa !9
  %131 = getelementptr inbounds nuw i32, ptr %130, i32 1
  store ptr %131, ptr %14, align 8, !tbaa !9
  br label %132

132:                                              ; preds = %127, %78
  %133 = load i32, ptr %12, align 4, !tbaa !11
  %134 = add nsw i32 %133, 1
  store i32 %134, ptr %12, align 4, !tbaa !11
  br label %68, !llvm.loop !70

135:                                              ; preds = %68
  call void @llvm.lifetime.end.p0(i64 4, ptr %15) #8
  call void @llvm.lifetime.end.p0(i64 8, ptr %14) #8
  call void @llvm.lifetime.end.p0(i64 4, ptr %13) #8
  call void @llvm.lifetime.end.p0(i64 4, ptr %12) #8
  call void @llvm.lifetime.end.p0(i64 4, ptr %11) #8
  ret void
}