; Function Attrs: nounwind uwtable
define void @ff_dca_downmix_to_stereo_float(ptr noundef readonly captures(none) %0, ptr noundef readonly captures(none) %1, ptr noundef readonly captures(none) %2, i32 noundef %3, i32 noundef %4) local_unnamed_addr #0 {
  %6 = and i32 %4, 6
  %7 = icmp eq i32 %6, 6
  br i1 %7, label %9, label %8

8:                                                ; preds = %5
  tail call void (ptr, i32, ptr, ...) @av_log(ptr noundef null, i32 noundef 0, ptr noundef nonnull @.str, ptr noundef nonnull @.str.1, ptr noundef nonnull @.str.2, i32 noundef 124) #7
  tail call void @abort() #8
  unreachable

9:                                                ; preds = %5
  %.not.i = icmp ult i32 %4, 65536
  %10 = lshr i32 %4, 16
  %spec.select.i = select i1 %.not.i, i32 %4, i32 %10
  %.not11.i = icmp samesign ult i32 %spec.select.i, 256
  %11 = lshr i32 %spec.select.i, 8
  %.110.i = select i1 %.not11.i, i32 %spec.select.i, i32 %11
  %12 = zext nneg i32 %.110.i to i64
  %13 = getelementptr inbounds nuw [256 x i8], ptr @ff_log2_tab, i64 0, i64 %12
  %14 = load i8, ptr %13, align 1, !tbaa !48
  %15 = zext i8 %14 to i32
  %spec.select12.i = select i1 %.not.i, i32 0, i32 16
  %16 = or disjoint i32 %spec.select12.i, 8
  %.1.i = select i1 %.not11.i, i32 %spec.select12.i, i32 %16
  %17 = lshr i32 %4, 1
  %18 = and i32 %17, 1431655765
  %19 = sub i32 %4, %18
  %20 = and i32 %19, 858993459
  %21 = lshr i32 %19, 2
  %22 = and i32 %21, 858993459
  %23 = add nuw nsw i32 %22, %20
  %24 = lshr i32 %23, 4
  %25 = add nuw nsw i32 %24, %23
  %26 = and i32 %25, 252645135
  %27 = lshr i32 %26, 8
  %28 = add nuw nsw i32 %27, %26
  %29 = lshr i32 %28, 16
  %30 = add nuw nsw i32 %29, %28
  %31 = and i32 %30, 63
  %32 = zext nneg i32 %31 to i64
  %33 = getelementptr inbounds nuw i32, ptr %2, i64 %32
  %34 = and i32 %4, 1
  %35 = getelementptr inbounds nuw i8, ptr %0, i64 24
  %36 = load ptr, ptr %35, align 8, !tbaa !55
  %37 = getelementptr inbounds nuw i8, ptr %1, i64 8
  %38 = load ptr, ptr %37, align 8, !tbaa !57
  %39 = zext nneg i32 %34 to i64
  %40 = getelementptr inbounds nuw i32, ptr %2, i64 %39
  %41 = load i32, ptr %40, align 4, !tbaa !43
  %42 = sitofp i32 %41 to float
  %43 = fmul nsz float %42, 0x3F00000000000000
  tail call void %36(ptr noundef %38, ptr noundef %38, float noundef %43, i32 noundef %3) #7
  %44 = load ptr, ptr %35, align 8, !tbaa !55
  %45 = getelementptr inbounds nuw i8, ptr %1, i64 16
  %46 = load ptr, ptr %45, align 8, !tbaa !57
  %47 = getelementptr inbounds nuw i32, ptr %33, i64 %39
  %48 = getelementptr inbounds nuw i8, ptr %47, i64 4
  %49 = load i32, ptr %48, align 4, !tbaa !43
  %50 = sitofp i32 %49 to float
  %51 = fmul nsz float %50, 0x3F00000000000000
  tail call void %44(ptr noundef %46, ptr noundef %46, float noundef %51, i32 noundef %3) #7
  %52 = getelementptr inbounds nuw i8, ptr %0, i64 8
  %53 = add nuw nsw i32 %.1.i, %15
  %54 = add nuw nsw i32 %53, 1
  %wide.trip.count = zext nneg i32 %54 to i64
  br label %55

55:                                               ; preds = %9, %84
  %indvars.iv = phi i64 [ 0, %9 ], [ %indvars.iv.next, %84 ]
  %.051 = phi ptr [ %2, %9 ], [ %.1, %84 ]
  %.04250 = phi ptr [ %33, %9 ], [ %.143, %84 ]
  %56 = trunc nuw nsw i64 %indvars.iv to i32
  %57 = shl nuw i32 1, %56
  %58 = and i32 %57, %4
  %.not47 = icmp eq i32 %58, 0
  br i1 %.not47, label %84, label %59

59:                                               ; preds = %55
  %60 = load i32, ptr %.051, align 4, !tbaa !43
  %61 = icmp ne i32 %60, 0
  %62 = icmp ne i64 %indvars.iv, 1
  %or.cond = and i1 %62, %61
  br i1 %or.cond, label %63, label %70

63:                                               ; preds = %59
  %64 = load ptr, ptr %52, align 8, !tbaa !58
  %65 = load ptr, ptr %37, align 8, !tbaa !57
  %66 = getelementptr inbounds nuw ptr, ptr %1, i64 %indvars.iv
  %67 = load ptr, ptr %66, align 8, !tbaa !57
  %68 = sitofp i32 %60 to float
  %69 = fmul nsz float %68, 0x3F00000000000000
  tail call void %64(ptr noundef %65, ptr noundef %67, float noundef %69, i32 noundef %3) #7
  br label %70

70:                                               ; preds = %63, %59
  %71 = load i32, ptr %.04250, align 4, !tbaa !43
  %72 = icmp ne i32 %71, 0
  %73 = icmp ne i64 %indvars.iv, 2
  %or.cond3 = and i1 %73, %72
  br i1 %or.cond3, label %74, label %81

74:                                               ; preds = %70
  %75 = load ptr, ptr %52, align 8, !tbaa !58
  %76 = load ptr, ptr %45, align 8, !tbaa !57
  %77 = getelementptr inbounds nuw ptr, ptr %1, i64 %indvars.iv
  %78 = load ptr, ptr %77, align 8, !tbaa !57
  %79 = sitofp i32 %71 to float
  %80 = fmul nsz float %79, 0x3F00000000000000
  tail call void %75(ptr noundef %76, ptr noundef %78, float noundef %80, i32 noundef %3) #7
  br label %81

81:                                               ; preds = %74, %70
  %82 = getelementptr inbounds nuw i8, ptr %.051, i64 4
  %83 = getelementptr inbounds nuw i8, ptr %.04250, i64 4
  br label %84

84:                                               ; preds = %55, %81
  %.143 = phi ptr [ %83, %81 ], [ %.04250, %55 ]
  %.1 = phi ptr [ %82, %81 ], [ %.051, %55 ]
  %indvars.iv.next = add nuw nsw i64 %indvars.iv, 1
  %exitcond.not = icmp eq i64 %indvars.iv.next, %wide.trip.count
  br i1 %exitcond.not, label %85, label %55, !llvm.loop !59

85:                                               ; preds = %84
  ret void
}